; Function Attrs: nounwind uwtable
define dso_local range(i64 0, 2) i64 @nameicnlike(ptr noundef readonly captures(none) %0) local_unnamed_addr #0 {
  %2 = getelementptr inbounds nuw i8, ptr %0, i64 32
  %3 = load i64, ptr %2, align 8
  %4 = getelementptr inbounds nuw i8, ptr %0, i64 48
  %5 = load i64, ptr %4, align 8
  %6 = inttoptr i64 %5 to ptr
  %7 = tail call ptr @pg_detoast_datum_packed(ptr noundef %6) #7
  %8 = tail call i64 @DirectFunctionCall1Coll(ptr noundef nonnull @name_text, i32 noundef 0, i64 noundef %3) #7
  %9 = inttoptr i64 %8 to ptr
  %10 = tail call ptr @pg_detoast_datum_packed(ptr noundef %9) #7
  %11 = getelementptr inbounds nuw i8, ptr %0, i64 24
  %12 = load i32, ptr %11, align 8
  %13 = tail call fastcc i32 @Generic_Text_IC_like(ptr noundef %10, ptr noundef %7, i32 noundef %12)
  %14 = icmp ne i32 %13, 1
  %15 = zext i1 %14 to i64
  ret i64 %15
}